(dp0
S'CELL9'
p1
(idev.paropt.core.parameter
Parameter
p2
(dp3
S'kind'
p4
S'real'
p5
sS'name'
p6
g1
sS'is_categorical'
p7
I00
sS'bounds'
p8
NsS'value'
p9
F8.0000000000000302
sS'is_real'
p10
I01
sS'_default'
p11
F10.0
sS'is_integer'
p12
I00
sbsS'CELL8'
p13
(idev.paropt.core.parameter
Parameter
p14
(dp15
g4
g5
sg6
g13
sg7
I00
sg8
Nsg9
F-1.99999999999995
sg10
I01
sg11
F9.0
sg12
I00
sbsS'CELL1'
p16
(idev.paropt.core.parameter
Parameter
p17
(dp18
g4
g5
sg6
g16
sg7
I00
sg8
Nsg9
F-16.000000000000043
sg10
I01
sg11
F2.0
sg12
I00
sbsS'CELL0'
p19
(idev.paropt.core.parameter
Parameter
p20
(dp21
g4
g5
sg6
g19
sg7
I00
sg8
Nsg9
F-7.9999999999998384
sg10
I01
sg11
F1.0
sg12
I00
sbsS'CELL3'
p22
(idev.paropt.core.parameter
Parameter
p23
(dp24
g4
g5
sg6
g22
sg7
I00
sg8
Nsg9
F3.9999999999999729
sg10
I01
sg11
F4.0
sg12
I00
sbsS'CELL2'
p25
(idev.paropt.core.parameter
Parameter
p26
(dp27
g4
g5
sg6
g25
sg7
I00
sg8
Nsg9
F1.0000000000000431
sg10
I01
sg11
F3.0
sg12
I00
sbsS'CELL5'
p28
(idev.paropt.core.parameter
Parameter
p29
(dp30
g4
g5
sg6
g28
sg7
I00
sg8
Nsg9
F6.0000000000000204
sg10
I01
sg11
F6.0
sg12
I00
sbsS'CELL4'
p31
(idev.paropt.core.parameter
Parameter
p32
(dp33
g4
g5
sg6
g31
sg7
I00
sg8
Nsg9
F4.9999999999999716
sg10
I01
sg11
F5.0
sg12
I00
sbsS'CELL7'
p34
(idev.paropt.core.parameter
Parameter
p35
(dp36
g4
g5
sg6
g34
sg7
I00
sg8
Nsg9
F6.0000000000000666
sg10
I01
sg11
F8.0
sg12
I00
sbsS'CELL6'
p37
(idev.paropt.core.parameter
Parameter
p38
(dp39
g4
g5
sg6
g37
sg7
I00
sg8
Nsg9
F7.4999999999999858
sg10
I01
sg11
F7.0
sg12
I00
sbsS'CELL11'
p40
(idev.paropt.core.parameter
Parameter
p41
(dp42
g4
g5
sg6
g40
sg7
I00
sg8
Nsg9
F15.999999999999991
sg10
I01
sg11
F12.0
sg12
I00
sbsS'CELL10'
p43
(idev.paropt.core.parameter
Parameter
p44
(dp45
g4
g5
sg6
g43
sg7
I00
sg8
Nsg9
F5.0000000000000604
sg10
I01
sg11
F11.0
sg12
I00
sbsS'CELL13'
p46
(idev.paropt.core.parameter
Parameter
p47
(dp48
g4
g5
sg6
g46
sg7
I00
sg8
Nsg9
F14.000000000000039
sg10
I01
sg11
F14.0
sg12
I00
sbsS'CELL12'
p49
(idev.paropt.core.parameter
Parameter
p50
(dp51
g4
g5
sg6
g49
sg7
I00
sg8
Nsg9
F13.000000000000025
sg10
I01
sg11
F13.0
sg12
I00
sbsS'CELL15'
p52
(idev.paropt.core.parameter
Parameter
p53
(dp54
g4
g5
sg6
g52
sg7
I00
sg8
Nsg9
F13.999999999999959
sg10
I01
sg11
F16.0
sg12
I00
sbsS'CELL14'
p55
(idev.paropt.core.parameter
Parameter
p56
(dp57
g4
g5
sg6
g55
sg7
I00
sg8
Nsg9
F13.000000000000066
sg10
I01
sg11
F15.0
sg12
I00
sbs.