(idev.paropt.core.blackbox
BlackBox
p0
(dp1
S'm_con'
p2
I0
sS'solver'
p3
(idev.paropt.Solvers.NOMAD
NOMADSolver
p4
(dp5
S'paramFileName'
p6
S'nomad-param.txt'
p7
sS'command'
p8
S'nomad'
p9
sS'name'
p10
S'NOMAD'
p11
sS'resultFileName'
p12
S'nomad-result.txt'
p13
sS'args'
p14
(lp15
Nag7
aNasS'parameter_settings'
p16
(lp17
S'MAX_BB_EVAL 50000'
p18
asS'solutionFileName'
p19
S'nomad-solution.txt'
p20
sbsS'model_data'
p21
(idev.paropt.core.modeldata
ModelData
p22
(dp23
S'measure_value_table'
p24
(idev.paropt.core.measure
MeasureValueTable
p25
(dp26
S'problem_indices'
p27
(dp28
S'GF'
p29
I1
ssS'measure_names'
p30
(lp31
g29
asS'table'
p32
(dp33
g29
(lp34
F6.60720529545
assbsS'logging'
p35
(idev.paropt.core.log
TestLogging
p36
(dp37
S'testIdReg'
p38
cre
_compile
p39
(S'# Test number: [0-9]+'
p40
I0
tp41
Rp42
sbsS'parameters'
p43
(lp44
(idev.paropt.core.parameter
Parameter
p45
(dp46
S'kind'
p47
S'real'
p48
sg10
S'CELL0'
p49
sS'is_categorical'
p50
I00
sS'bound'
p51
(I-1
I1
tp52
sS'value'
p53
F0.20581630855067301
sS'is_real'
p54
I01
sS'_default'
p55
F0.20581632334124
sS'is_integer'
p56
I00
sba(idev.paropt.core.parameter
Parameter
p57
(dp58
g47
g48
sg10
S'CELL1'
p59
sg50
I00
sg51
g52
sg53
F0.65676418962069205
sg54
I01
sg55
F0.656764167740432
sg56
I00
sba(idev.paropt.core.parameter
Parameter
p60
(dp61
g47
g48
sg10
S'CELL2'
p62
sg50
I00
sg51
g52
sg53
F0.148057032844016
sg54
I01
sg55
F0.14805699360623201
sg56
I00
sba(idev.paropt.core.parameter
Parameter
p63
(dp64
g47
g48
sg10
S'CELL3'
p65
sg50
I00
sg51
g52
sg53
F0.67747877474997398
sg54
I01
sg55
F0.67747876356537196
sg56
I00
sba(idev.paropt.core.parameter
Parameter
p66
(dp67
g47
g48
sg10
S'CELL4'
p68
sg50
I00
sg51
g52
sg53
F0.55182519895645998
sg54
I01
sg55
F0.55182517615943005
sg56
I00
sba(idev.paropt.core.parameter
Parameter
p69
(dp70
g47
g48
sg10
S'CELL5'
p71
sg50
I00
sg51
g52
sg53
F0.22701584304580499
sg54
I01
sg55
F0.22701582477151
sg56
I00
sba(idev.paropt.core.parameter
Parameter
p72
(dp73
g47
g48
sg10
S'CELL6'
p74
sg50
I00
sg51
g52
sg53
F-0.17746479351227101
sg54
I01
sg55
F-0.17746478251102299
sg56
I00
sba(idev.paropt.core.parameter
Parameter
p75
(dp76
g47
g48
sg10
S'CELL7'
p77
sg50
I00
sg51
g52
sg53
F-0.67747875623226606
sg54
I01
sg55
F-0.67747878948048201
sg56
I00
sba(idev.paropt.core.parameter
Parameter
p78
(dp79
g47
g48
sg10
S'CELL8'
p80
sg50
I00
sg51
g52
sg53
F0.55182509876795705
sg54
I01
sg55
F0.55182512162610597
sg56
I00
sba(idev.paropt.core.parameter
Parameter
p81
(dp82
g47
g48
sg10
S'CELL9'
p83
sg50
I00
sg51
g52
sg53
F-0.34507748408251199
sg54
I01
sg55
F-0.34507748854412901
sg56
I00
sba(idev.paropt.core.parameter
Parameter
p84
(dp85
g47
g48
sg10
S'CELL10'
p86
sg50
I00
sg51
g52
sg53
F-0.028503449675919001
sg54
I01
sg55
F-0.028503440569330001
sg56
I00
sba(idev.paropt.core.parameter
Parameter
p87
(dp88
g47
g48
sg10
S'CELL11'
p89
sg50
I00
sg51
g52
sg53
F0.67747873319168195
sg54
I01
sg55
F0.67747867890685398
sg56
I00
sba(idev.paropt.core.parameter
Parameter
p90
(dp91
g47
g48
sg10
S'CELL12'
p92
sg50
I00
sg51
g52
sg53
F-0.12925548713844001
sg54
I01
sg55
F-0.12925551231907401
sg56
I00
sba(idev.paropt.core.parameter
Parameter
p93
(dp94
g47
g48
sg10
S'CELL13'
p95
sg50
I00
sg51
g52
sg53
F-0.62526774219932002
sg54
I01
sg55
F-0.62526776047361499
sg56
I00
sba(idev.paropt.core.parameter
Parameter
p96
(dp97
g47
g48
sg10
S'CELL14'
p98
sg50
I00
sg51
g52
sg53
F0.55373738539820605
sg54
I01
sg55
F0.55373737922528399
sg56
I00
sba(idev.paropt.core.parameter
Parameter
p99
(dp100
g47
g48
sg10
S'CELL15'
p101
sg50
I00
sg51
g52
sg53
F-0.67747867263900197
sg54
I01
sg55
F-0.67747866414359403
sg56
I00
sbasS'algorithm'
p102
(igf_algorithm
GFCompAlg
p103
(dp104
S'executable'
p105
S'/userdata/users/codan/local/python/bin/python gf_computing.py 1'
p106
sg10
S'GFC'
p107
sg43
(lp108
(idev.paropt.core.parameter
Parameter
p109
(dp110
g47
g48
sg10
g49
sg50
I00
sg51
g52
sg53
F0.20581632334124
sg54
I01
sg55
F0.20581632334124
sg56
I00
sba(idev.paropt.core.parameter
Parameter
p111
(dp112
g47
g48
sg10
g59
sg50
I00
sg51
g52
sg53
F0.656764167740432
sg54
I01
sg55
F0.656764167740432
sg56
I00
sba(idev.paropt.core.parameter
Parameter
p113
(dp114
g47
g48
sg10
g62
sg50
I00
sg51
g52
sg53
F0.14805699360623201
sg54
I01
sg55
F0.14805699360623201
sg56
I00
sba(idev.paropt.core.parameter
Parameter
p115
(dp116
g47
g48
sg10
g65
sg50
I00
sg51
g52
sg53
F0.67747876356537196
sg54
I01
sg55
F0.67747876356537196
sg56
I00
sba(idev.paropt.core.parameter
Parameter
p117
(dp118
g47
g48
sg10
g68
sg50
I00
sg51
g52
sg53
F0.55182517615943005
sg54
I01
sg55
F0.55182517615943005
sg56
I00
sba(idev.paropt.core.parameter
Parameter
p119
(dp120
g47
g48
sg10
g71
sg50
I00
sg51
g52
sg53
F0.22701582477151
sg54
I01
sg55
F0.22701582477151
sg56
I00
sba(idev.paropt.core.parameter
Parameter
p121
(dp122
g47
g48
sg10
g74
sg50
I00
sg51
g52
sg53
F-0.17746478251102299
sg54
I01
sg55
F-0.17746478251102299
sg56
I00
sba(idev.paropt.core.parameter
Parameter
p123
(dp124
g47
g48
sg10
g77
sg50
I00
sg51
g52
sg53
F-0.67747878948048201
sg54
I01
sg55
F-0.67747878948048201
sg56
I00
sba(idev.paropt.core.parameter
Parameter
p125
(dp126
g47
g48
sg10
g80
sg50
I00
sg51
g52
sg53
F0.55182512162610597
sg54
I01
sg55
F0.55182512162610597
sg56
I00
sba(idev.paropt.core.parameter
Parameter
p127
(dp128
g47
g48
sg10
g83
sg50
I00
sg51
g52
sg53
F-0.34507748854412901
sg54
I01
sg55
F-0.34507748854412901
sg56
I00
sba(idev.paropt.core.parameter
Parameter
p129
(dp130
g47
g48
sg10
g86
sg50
I00
sg51
g52
sg53
F-0.028503440569330001
sg54
I01
sg55
F-0.028503440569330001
sg56
I00
sba(idev.paropt.core.parameter
Parameter
p131
(dp132
g47
g48
sg10
g89
sg50
I00
sg51
g52
sg53
F0.67747867890685398
sg54
I01
sg55
F0.67747867890685398
sg56
I00
sba(idev.paropt.core.parameter
Parameter
p133
(dp134
g47
g48
sg10
g92
sg50
I00
sg51
g52
sg53
F-0.12925551231907401
sg54
I01
sg55
F-0.12925551231907401
sg56
I00
sba(idev.paropt.core.parameter
Parameter
p135
(dp136
g47
g48
sg10
g95
sg50
I00
sg51
g52
sg53
F-0.62526776047361499
sg54
I01
sg55
F-0.62526776047361499
sg56
I00
sba(idev.paropt.core.parameter
Parameter
p137
(dp138
g47
g48
sg10
g98
sg50
I00
sg51
g52
sg53
F0.55373737922528399
sg54
I01
sg55
F0.55373737922528399
sg56
I00
sba(idev.paropt.core.parameter
Parameter
p139
(dp140
g47
g48
sg10
g101
sg50
I00
sg51
g52
sg53
F-0.67747866414359403
sg54
I01
sg55
F-0.67747866414359403
sg56
I00
sbasS'parameter_writing_method'
p141
NsS'measure_reading_method'
p142
NsS'measures'
p143
(lp144
(idev.paropt.core.measure
Measure
p145
(dp146
g54
I01
sg47
g48
sS'data'
p147
Nsg10
g29
sg56
I00
sbasS'matrix_size'
p148
I4
sS'purpose'
p149
S'Compute growth factor of a matrix'
p150
sS'parameter_file'
p151
S'matrix.txt'
p152
sS'constraints'
p153
(lp154
sbsS'test_is_failed'
p155
I00
sg143
(lp156
(idev.paropt.core.measure
Measure
p157
(dp158
g54
I01
sg47
g48
sg147
g25
sg10
g29
sg56
I00
sbasS'problems'
p159
(lp160
(idev.paropt.core.testproblem
TestProblem
p161
(dp162
g10
g29
sS'description'
p163
NsbasS'run_id'
p164
S'2009630225045'
p165
sS'platform'
p166
(idev.paropt.Platforms.LINUX
LINUXPlatform
p167
(dp168
S'logFile'
p169
S'run.log'
p170
sg10
S'LINUX'
p171
sbsS'logFileName'
p172
S'/userdata/users/codan/opt-package/param-opt/git-dev/examples/growth-factor/version-0.1.1/test-bed.log'
p173
sS'platformName'
p174
S''
p175
sS'active_parameter_names'
p176
(lp177
g49
ag59
ag62
ag65
ag68
ag71
ag74
ag77
ag80
ag83
ag86
ag89
ag92
ag95
ag98
ag101
asS'test_number'
p178
I675
sbsS'bounds'
p179
(lp180
g52
ag52
ag52
ag52
ag52
ag52
ag52
ag52
ag52
ag52
ag52
ag52
ag52
ag52
ag52
ag52
asS'initial_points'
p181
(lp182
F0.20581632334124
aF0.656764167740432
aF0.14805699360623201
aF0.67747876356537196
aF0.55182517615943005
aF0.22701582477151
aF-0.17746478251102299
aF-0.67747878948048201
aF0.55182512162610597
aF-0.34507748854412901
aF-0.028503440569330001
aF0.67747867890685398
aF-0.12925551231907401
aF-0.62526776047361499
aF0.55373737922528399
aF-0.67747866414359403
asS'n_var'
p183
I16
sS'model_structure'
p184
(idev.paropt.core.modelstructure
ModelStructure
p185
(dp186
S'objective'
p187
(idev.paropt.core.modelstructure
MeasureFunction
p188
(dp189
S'file_name'
p190
S'/userdata/users/codan/opt-package/param-opt/git-dev/examples/growth-factor/version-0.1.1/growth_factor.code'
p191
sg10
S'growth_factor'
p192
sbsS'log'
p193
Nsg153
(lp194
sbsS'executableFileName'
p195
S'blackbox.py'
p196
sb.