(idev.opal.core.testproblem
ProblemCollection
p0
(dp1
S'HS'
p2
(idev.opal.core.testproblem
ProblemSet
p3
(dp4
S'problems'
p5
(lp6
(idev.opal.TestProblemCollections.cuterfactory
CUTErTestProblem
p7
(dp8
S'nvar'
p9
I2
sS'classifyStr'
p10
NsS'name'
p11
S'HS1'
p12
sS'ncon'
p13
I0
sS'paramString'
p14
Nsba(idev.opal.TestProblemCollections.cuterfactory
CUTErTestProblem
p15
(dp16
g9
I2
sg10
Nsg11
S'HS10'
p17
sg13
I1
sg14
Nsba(idev.opal.TestProblemCollections.cuterfactory
CUTErTestProblem
p18
(dp19
g9
I7
sg10
Nsg11
S'HS100'
p20
sg13
I4
sg14
Nsba(idev.opal.TestProblemCollections.cuterfactory
CUTErTestProblem
p21
(dp22
g9
I7
sg10
Nsg11
S'HS100LNP'
p23
sg13
I2
sg14
Nsba(idev.opal.TestProblemCollections.cuterfactory
CUTErTestProblem
p24
(dp25
g9
I7
sg10
Nsg11
S'HS100MOD'
p26
sg13
I4
sg14
Nsba(idev.opal.TestProblemCollections.cuterfactory
CUTErTestProblem
p27
(dp28
g9
I7
sg10
Nsg11
S'HS101'
p29
sg13
I5
sg14
Nsba(idev.opal.TestProblemCollections.cuterfactory
CUTErTestProblem
p30
(dp31
g9
I7
sg10
Nsg11
S'HS102'
p32
sg13
I5
sg14
Nsba(idev.opal.TestProblemCollections.cuterfactory
CUTErTestProblem
p33
(dp34
g9
I7
sg10
Nsg11
S'HS103'
p35
sg13
I5
sg14
Nsba(idev.opal.TestProblemCollections.cuterfactory
CUTErTestProblem
p36
(dp37
g9
I8
sg10
Nsg11
S'HS104'
p38
sg13
I5
sg14
Nsba(idev.opal.TestProblemCollections.cuterfactory
CUTErTestProblem
p39
(dp40
g9
I8
sg10
Nsg11
S'HS105'
p41
sg13
I1
sg14
Nsba(idev.opal.TestProblemCollections.cuterfactory
CUTErTestProblem
p42
(dp43
g9
I8
sg10
Nsg11
S'HS106'
p44
sg13
I6
sg14
Nsba(idev.opal.TestProblemCollections.cuterfactory
CUTErTestProblem
p45
(dp46
g9
I9
sg10
Nsg11
S'HS107'
p47
sg13
I6
sg14
Nsba(idev.opal.TestProblemCollections.cuterfactory
CUTErTestProblem
p48
(dp49
g9
I9
sg10
Nsg11
S'HS108'
p50
sg13
I13
sg14
Nsba(idev.opal.TestProblemCollections.cuterfactory
CUTErTestProblem
p51
(dp52
g9
I9
sg10
Nsg11
S'HS109'
p53
sg13
I10
sg14
Nsba(idev.opal.TestProblemCollections.cuterfactory
CUTErTestProblem
p54
(dp55
g9
I2
sg10
Nsg11
S'HS11'
p56
sg13
I1
sg14
Nsba(idev.opal.TestProblemCollections.cuterfactory
CUTErTestProblem
p57
(dp58
g9
I10
sg10
Nsg11
S'HS110'
p59
sg13
I0
sg14
Nsba(idev.opal.TestProblemCollections.cuterfactory
CUTErTestProblem
p60
(dp61
g9
I10
sg10
Nsg11
S'HS111'
p62
sg13
I3
sg14
Nsba(idev.opal.TestProblemCollections.cuterfactory
CUTErTestProblem
p63
(dp64
g9
I10
sg10
Nsg11
S'HS111LNP'
p65
sg13
I3
sg14
Nsba(idev.opal.TestProblemCollections.cuterfactory
CUTErTestProblem
p66
(dp67
g9
I10
sg10
Nsg11
S'HS112'
p68
sg13
I3
sg14
Nsba(idev.opal.TestProblemCollections.cuterfactory
CUTErTestProblem
p69
(dp70
g9
I10
sg10
Nsg11
S'HS113'
p71
sg13
I8
sg14
Nsba(idev.opal.TestProblemCollections.cuterfactory
CUTErTestProblem
p72
(dp73
g9
I10
sg10
Nsg11
S'HS114'
p74
sg13
I11
sg14
Nsba(idev.opal.TestProblemCollections.cuterfactory
CUTErTestProblem
p75
(dp76
g9
I13
sg10
Nsg11
S'HS116'
p77
sg13
I14
sg14
Nsba(idev.opal.TestProblemCollections.cuterfactory
CUTErTestProblem
p78
(dp79
g9
I15
sg10
Nsg11
S'HS117'
p80
sg13
I5
sg14
Nsba(idev.opal.TestProblemCollections.cuterfactory
CUTErTestProblem
p81
(dp82
g9
I15
sg10
Nsg11
S'HS118'
p83
sg13
I17
sg14
Nsba(idev.opal.TestProblemCollections.cuterfactory
CUTErTestProblem
p84
(dp85
g9
I16
sg10
Nsg11
S'HS119'
p86
sg13
I8
sg14
Nsba(idev.opal.TestProblemCollections.cuterfactory
CUTErTestProblem
p87
(dp88
g9
I2
sg10
Nsg11
S'HS12'
p89
sg13
I1
sg14
Nsba(idev.opal.TestProblemCollections.cuterfactory
CUTErTestProblem
p90
(dp91
g9
I2
sg10
Nsg11
S'HS13'
p92
sg13
I1
sg14
Nsba(idev.opal.TestProblemCollections.cuterfactory
CUTErTestProblem
p93
(dp94
g9
I2
sg10
Nsg11
S'HS14'
p95
sg13
I2
sg14
Nsba(idev.opal.TestProblemCollections.cuterfactory
CUTErTestProblem
p96
(dp97
g9
I2
sg10
Nsg11
S'HS15'
p98
sg13
I2
sg14
Nsba(idev.opal.TestProblemCollections.cuterfactory
CUTErTestProblem
p99
(dp100
g9
I2
sg10
Nsg11
S'HS16'
p101
sg13
I2
sg14
Nsba(idev.opal.TestProblemCollections.cuterfactory
CUTErTestProblem
p102
(dp103
g9
I2
sg10
Nsg11
S'HS17'
p104
sg13
I2
sg14
Nsba(idev.opal.TestProblemCollections.cuterfactory
CUTErTestProblem
p105
(dp106
g9
I2
sg10
Nsg11
S'HS18'
p107
sg13
I2
sg14
Nsba(idev.opal.TestProblemCollections.cuterfactory
CUTErTestProblem
p108
(dp109
g9
I2
sg10
Nsg11
S'HS19'
p110
sg13
I2
sg14
Nsba(idev.opal.TestProblemCollections.cuterfactory
CUTErTestProblem
p111
(dp112
g9
I2
sg10
Nsg11
S'HS2'
p113
sg13
I0
sg14
Nsba(idev.opal.TestProblemCollections.cuterfactory
CUTErTestProblem
p114
(dp115
g9
I2
sg10
Nsg11
S'HS20'
p116
sg13
I3
sg14
Nsba(idev.opal.TestProblemCollections.cuterfactory
CUTErTestProblem
p117
(dp118
g9
I2
sg10
Nsg11
S'HS21'
p119
sg13
I1
sg14
Nsba(idev.opal.TestProblemCollections.cuterfactory
CUTErTestProblem
p120
(dp121
g9
I7
sg10
Nsg11
S'HS21MOD'
p122
sg13
I1
sg14
Nsba(idev.opal.TestProblemCollections.cuterfactory
CUTErTestProblem
p123
(dp124
g9
I2
sg10
Nsg11
S'HS22'
p125
sg13
I2
sg14
Nsba(idev.opal.TestProblemCollections.cuterfactory
CUTErTestProblem
p126
(dp127
g9
I2
sg10
Nsg11
S'HS23'
p128
sg13
I5
sg14
Nsba(idev.opal.TestProblemCollections.cuterfactory
CUTErTestProblem
p129
(dp130
g9
I2
sg10
Nsg11
S'HS24'
p131
sg13
I3
sg14
Nsba(idev.opal.TestProblemCollections.cuterfactory
CUTErTestProblem
p132
(dp133
g9
I3
sg10
Nsg11
S'HS25'
p134
sg13
I0
sg14
Nsba(idev.opal.TestProblemCollections.cuterfactory
CUTErTestProblem
p135
(dp136
g9
I3
sg10
Nsg11
S'HS26'
p137
sg13
I1
sg14
Nsba(idev.opal.TestProblemCollections.cuterfactory
CUTErTestProblem
p138
(dp139
g9
I5
sg10
Nsg11
S'HS268'
p140
sg13
I5
sg14
Nsba(idev.opal.TestProblemCollections.cuterfactory
CUTErTestProblem
p141
(dp142
g9
I3
sg10
Nsg11
S'HS27'
p143
sg13
I1
sg14
Nsba(idev.opal.TestProblemCollections.cuterfactory
CUTErTestProblem
p144
(dp145
g9
I3
sg10
Nsg11
S'HS28'
p146
sg13
I1
sg14
Nsba(idev.opal.TestProblemCollections.cuterfactory
CUTErTestProblem
p147
(dp148
g9
I3
sg10
Nsg11
S'HS29'
p149
sg13
I1
sg14
Nsba(idev.opal.TestProblemCollections.cuterfactory
CUTErTestProblem
p150
(dp151
g9
I2
sg10
Nsg11
S'HS3'
p152
sg13
I0
sg14
Nsba(idev.opal.TestProblemCollections.cuterfactory
CUTErTestProblem
p153
(dp154
g9
I3
sg10
Nsg11
S'HS30'
p155
sg13
I1
sg14
Nsba(idev.opal.TestProblemCollections.cuterfactory
CUTErTestProblem
p156
(dp157
g9
I3
sg10
Nsg11
S'HS31'
p158
sg13
I1
sg14
Nsba(idev.opal.TestProblemCollections.cuterfactory
CUTErTestProblem
p159
(dp160
g9
I3
sg10
Nsg11
S'HS32'
p161
sg13
I2
sg14
Nsba(idev.opal.TestProblemCollections.cuterfactory
CUTErTestProblem
p162
(dp163
g9
I3
sg10
Nsg11
S'HS33'
p164
sg13
I2
sg14
Nsba(idev.opal.TestProblemCollections.cuterfactory
CUTErTestProblem
p165
(dp166
g9
I3
sg10
Nsg11
S'HS34'
p167
sg13
I2
sg14
Nsba(idev.opal.TestProblemCollections.cuterfactory
CUTErTestProblem
p168
(dp169
g9
I3
sg10
Nsg11
S'HS35'
p170
sg13
I1
sg14
Nsba(idev.opal.TestProblemCollections.cuterfactory
CUTErTestProblem
p171
(dp172
g9
I3
sg10
Nsg11
S'HS35I'
p173
sg13
I1
sg14
Nsba(idev.opal.TestProblemCollections.cuterfactory
CUTErTestProblem
p174
(dp175
g9
I3
sg10
Nsg11
S'HS35MOD'
p176
sg13
I1
sg14
Nsba(idev.opal.TestProblemCollections.cuterfactory
CUTErTestProblem
p177
(dp178
g9
I3
sg10
Nsg11
S'HS36'
p179
sg13
I1
sg14
Nsba(idev.opal.TestProblemCollections.cuterfactory
CUTErTestProblem
p180
(dp181
g9
I3
sg10
Nsg11
S'HS37'
p182
sg13
I2
sg14
Nsba(idev.opal.TestProblemCollections.cuterfactory
CUTErTestProblem
p183
(dp184
g9
I4
sg10
Nsg11
S'HS38'
p185
sg13
I0
sg14
Nsba(idev.opal.TestProblemCollections.cuterfactory
CUTErTestProblem
p186
(dp187
g9
I4
sg10
Nsg11
S'HS39'
p188
sg13
I2
sg14
Nsba(idev.opal.TestProblemCollections.cuterfactory
CUTErTestProblem
p189
(dp190
g9
I2
sg10
Nsg11
S'HS3MOD'
p191
sg13
I0
sg14
Nsba(idev.opal.TestProblemCollections.cuterfactory
CUTErTestProblem
p192
(dp193
g9
I2
sg10
Nsg11
S'HS4'
p194
sg13
I0
sg14
Nsba(idev.opal.TestProblemCollections.cuterfactory
CUTErTestProblem
p195
(dp196
g9
I4
sg10
Nsg11
S'HS40'
p197
sg13
I3
sg14
Nsba(idev.opal.TestProblemCollections.cuterfactory
CUTErTestProblem
p198
(dp199
g9
I4
sg10
Nsg11
S'HS41'
p200
sg13
I1
sg14
Nsba(idev.opal.TestProblemCollections.cuterfactory
CUTErTestProblem
p201
(dp202
g9
I4
sg10
Nsg11
S'HS42'
p203
sg13
I2
sg14
Nsba(idev.opal.TestProblemCollections.cuterfactory
CUTErTestProblem
p204
(dp205
g9
I4
sg10
Nsg11
S'HS43'
p206
sg13
I3
sg14
Nsba(idev.opal.TestProblemCollections.cuterfactory
CUTErTestProblem
p207
(dp208
g9
I4
sg10
Nsg11
S'HS44'
p209
sg13
I6
sg14
Nsba(idev.opal.TestProblemCollections.cuterfactory
CUTErTestProblem
p210
(dp211
g9
I4
sg10
Nsg11
S'HS44NEW'
p212
sg13
I6
sg14
Nsba(idev.opal.TestProblemCollections.cuterfactory
CUTErTestProblem
p213
(dp214
g9
I5
sg10
Nsg11
S'HS45'
p215
sg13
I0
sg14
Nsba(idev.opal.TestProblemCollections.cuterfactory
CUTErTestProblem
p216
(dp217
g9
I5
sg10
Nsg11
S'HS46'
p218
sg13
I2
sg14
Nsba(idev.opal.TestProblemCollections.cuterfactory
CUTErTestProblem
p219
(dp220
g9
I5
sg10
Nsg11
S'HS47'
p221
sg13
I3
sg14
Nsba(idev.opal.TestProblemCollections.cuterfactory
CUTErTestProblem
p222
(dp223
g9
I5
sg10
Nsg11
S'HS48'
p224
sg13
I2
sg14
Nsba(idev.opal.TestProblemCollections.cuterfactory
CUTErTestProblem
p225
(dp226
g9
I5
sg10
Nsg11
S'HS49'
p227
sg13
I2
sg14
Nsba(idev.opal.TestProblemCollections.cuterfactory
CUTErTestProblem
p228
(dp229
g9
I2
sg10
Nsg11
S'HS5'
p230
sg13
I0
sg14
Nsba(idev.opal.TestProblemCollections.cuterfactory
CUTErTestProblem
p231
(dp232
g9
I5
sg10
Nsg11
S'HS50'
p233
sg13
I3
sg14
Nsba(idev.opal.TestProblemCollections.cuterfactory
CUTErTestProblem
p234
(dp235
g9
I5
sg10
Nsg11
S'HS51'
p236
sg13
I3
sg14
Nsba(idev.opal.TestProblemCollections.cuterfactory
CUTErTestProblem
p237
(dp238
g9
I5
sg10
Nsg11
S'HS52'
p239
sg13
I3
sg14
Nsba(idev.opal.TestProblemCollections.cuterfactory
CUTErTestProblem
p240
(dp241
g9
I5
sg10
Nsg11
S'HS53'
p242
sg13
I3
sg14
Nsba(idev.opal.TestProblemCollections.cuterfactory
CUTErTestProblem
p243
(dp244
g9
I6
sg10
Nsg11
S'HS54'
p245
sg13
I1
sg14
Nsba(idev.opal.TestProblemCollections.cuterfactory
CUTErTestProblem
p246
(dp247
g9
I6
sg10
Nsg11
S'HS55'
p248
sg13
I6
sg14
Nsba(idev.opal.TestProblemCollections.cuterfactory
CUTErTestProblem
p249
(dp250
g9
I7
sg10
Nsg11
S'HS56'
p251
sg13
I4
sg14
Nsba(idev.opal.TestProblemCollections.cuterfactory
CUTErTestProblem
p252
(dp253
g9
I2
sg10
Nsg11
S'HS57'
p254
sg13
I1
sg14
Nsba(idev.opal.TestProblemCollections.cuterfactory
CUTErTestProblem
p255
(dp256
g9
I2
sg10
Nsg11
S'HS59'
p257
sg13
I3
sg14
Nsba(idev.opal.TestProblemCollections.cuterfactory
CUTErTestProblem
p258
(dp259
g9
I2
sg10
Nsg11
S'HS6'
p260
sg13
I1
sg14
Nsba(idev.opal.TestProblemCollections.cuterfactory
CUTErTestProblem
p261
(dp262
g9
I3
sg10
Nsg11
S'HS60'
p263
sg13
I1
sg14
Nsba(idev.opal.TestProblemCollections.cuterfactory
CUTErTestProblem
p264
(dp265
g9
I3
sg10
Nsg11
S'HS61'
p266
sg13
I2
sg14
Nsba(idev.opal.TestProblemCollections.cuterfactory
CUTErTestProblem
p267
(dp268
g9
I3
sg10
Nsg11
S'HS62'
p269
sg13
I1
sg14
Nsba(idev.opal.TestProblemCollections.cuterfactory
CUTErTestProblem
p270
(dp271
g9
I3
sg10
Nsg11
S'HS63'
p272
sg13
I2
sg14
Nsba(idev.opal.TestProblemCollections.cuterfactory
CUTErTestProblem
p273
(dp274
g9
I3
sg10
Nsg11
S'HS64'
p275
sg13
I1
sg14
Nsba(idev.opal.TestProblemCollections.cuterfactory
CUTErTestProblem
p276
(dp277
g9
I3
sg10
Nsg11
S'HS65'
p278
sg13
I1
sg14
Nsba(idev.opal.TestProblemCollections.cuterfactory
CUTErTestProblem
p279
(dp280
g9
I3
sg10
Nsg11
S'HS66'
p281
sg13
I2
sg14
Nsba(idev.opal.TestProblemCollections.cuterfactory
CUTErTestProblem
p282
(dp283
g9
I3
sg10
Nsg11
S'HS67'
p284
sg13
I14
sg14
Nsba(idev.opal.TestProblemCollections.cuterfactory
CUTErTestProblem
p285
(dp286
g9
I4
sg10
Nsg11
S'HS68'
p287
sg13
I2
sg14
Nsba(idev.opal.TestProblemCollections.cuterfactory
CUTErTestProblem
p288
(dp289
g9
I4
sg10
Nsg11
S'HS69'
p290
sg13
I2
sg14
Nsba(idev.opal.TestProblemCollections.cuterfactory
CUTErTestProblem
p291
(dp292
g9
I2
sg10
Nsg11
S'HS7'
p293
sg13
I1
sg14
Nsba(idev.opal.TestProblemCollections.cuterfactory
CUTErTestProblem
p294
(dp295
g9
I4
sg10
Nsg11
S'HS70'
p296
sg13
I1
sg14
Nsba(idev.opal.TestProblemCollections.cuterfactory
CUTErTestProblem
p297
(dp298
g9
I4
sg10
Nsg11
S'HS71'
p299
sg13
I2
sg14
Nsba(idev.opal.TestProblemCollections.cuterfactory
CUTErTestProblem
p300
(dp301
g9
I4
sg10
Nsg11
S'HS72'
p302
sg13
I2
sg14
Nsba(idev.opal.TestProblemCollections.cuterfactory
CUTErTestProblem
p303
(dp304
g9
I4
sg10
Nsg11
S'HS73'
p305
sg13
I3
sg14
Nsba(idev.opal.TestProblemCollections.cuterfactory
CUTErTestProblem
p306
(dp307
g9
I4
sg10
Nsg11
S'HS74'
p308
sg13
I5
sg14
Nsba(idev.opal.TestProblemCollections.cuterfactory
CUTErTestProblem
p309
(dp310
g9
I4
sg10
Nsg11
S'HS75'
p311
sg13
I5
sg14
Nsba(idev.opal.TestProblemCollections.cuterfactory
CUTErTestProblem
p312
(dp313
g9
I4
sg10
Nsg11
S'HS76'
p314
sg13
I3
sg14
Nsba(idev.opal.TestProblemCollections.cuterfactory
CUTErTestProblem
p315
(dp316
g9
I4
sg10
Nsg11
S'HS76I'
p317
sg13
I3
sg14
Nsba(idev.opal.TestProblemCollections.cuterfactory
CUTErTestProblem
p318
(dp319
g9
I5
sg10
Nsg11
S'HS77'
p320
sg13
I2
sg14
Nsba(idev.opal.TestProblemCollections.cuterfactory
CUTErTestProblem
p321
(dp322
g9
I5
sg10
Nsg11
S'HS78'
p323
sg13
I3
sg14
Nsba(idev.opal.TestProblemCollections.cuterfactory
CUTErTestProblem
p324
(dp325
g9
I5
sg10
Nsg11
S'HS79'
p326
sg13
I3
sg14
Nsba(idev.opal.TestProblemCollections.cuterfactory
CUTErTestProblem
p327
(dp328
g9
I2
sg10
Nsg11
S'HS8'
p329
sg13
I2
sg14
Nsba(idev.opal.TestProblemCollections.cuterfactory
CUTErTestProblem
p330
(dp331
g9
I5
sg10
Nsg11
S'HS80'
p332
sg13
I3
sg14
Nsba(idev.opal.TestProblemCollections.cuterfactory
CUTErTestProblem
p333
(dp334
g9
I5
sg10
Nsg11
S'HS81'
p335
sg13
I3
sg14
Nsba(idev.opal.TestProblemCollections.cuterfactory
CUTErTestProblem
p336
(dp337
g9
I5
sg10
Nsg11
S'HS83'
p338
sg13
I3
sg14
Nsba(idev.opal.TestProblemCollections.cuterfactory
CUTErTestProblem
p339
(dp340
g9
I5
sg10
Nsg11
S'HS84'
p341
sg13
I3
sg14
Nsba(idev.opal.TestProblemCollections.cuterfactory
CUTErTestProblem
p342
(dp343
g9
I5
sg10
Nsg11
S'HS85'
p344
sg13
I21
sg14
Nsba(idev.opal.TestProblemCollections.cuterfactory
CUTErTestProblem
p345
(dp346
g9
I5
sg10
Nsg11
S'HS86'
p347
sg13
I10
sg14
Nsba(idev.opal.TestProblemCollections.cuterfactory
CUTErTestProblem
p348
(dp349
g9
I6
sg10
Nsg11
S'HS87'
p350
sg13
I4
sg14
Nsba(idev.opal.TestProblemCollections.cuterfactory
CUTErTestProblem
p351
(dp352
g9
I2
sg10
Nsg11
S'HS88'
p353
sg13
I1
sg14
Nsba(idev.opal.TestProblemCollections.cuterfactory
CUTErTestProblem
p354
(dp355
g9
I3
sg10
Nsg11
S'HS89'
p356
sg13
I1
sg14
Nsba(idev.opal.TestProblemCollections.cuterfactory
CUTErTestProblem
p357
(dp358
g9
I2
sg10
Nsg11
S'HS9'
p359
sg13
I1
sg14
Nsba(idev.opal.TestProblemCollections.cuterfactory
CUTErTestProblem
p360
(dp361
g9
I4
sg10
Nsg11
S'HS90'
p362
sg13
I1
sg14
Nsba(idev.opal.TestProblemCollections.cuterfactory
CUTErTestProblem
p363
(dp364
g9
I5
sg10
Nsg11
S'HS91'
p365
sg13
I1
sg14
Nsba(idev.opal.TestProblemCollections.cuterfactory
CUTErTestProblem
p366
(dp367
g9
I6
sg10
Nsg11
S'HS92'
p368
sg13
I1
sg14
Nsba(idev.opal.TestProblemCollections.cuterfactory
CUTErTestProblem
p369
(dp370
g9
I6
sg10
Nsg11
S'HS93'
p371
sg13
I2
sg14
Nsba(idev.opal.TestProblemCollections.cuterfactory
CUTErTestProblem
p372
(dp373
g9
I6
sg10
Nsg11
S'HS95'
p374
sg13
I4
sg14
Nsba(idev.opal.TestProblemCollections.cuterfactory
CUTErTestProblem
p375
(dp376
g9
I6
sg10
Nsg11
S'HS96'
p377
sg13
I4
sg14
Nsba(idev.opal.TestProblemCollections.cuterfactory
CUTErTestProblem
p378
(dp379
g9
I6
sg10
Nsg11
S'HS97'
p380
sg13
I4
sg14
Nsba(idev.opal.TestProblemCollections.cuterfactory
CUTErTestProblem
p381
(dp382
g9
I6
sg10
Nsg11
S'HS98'
p383
sg13
I4
sg14
Nsba(idev.opal.TestProblemCollections.cuterfactory
CUTErTestProblem
p384
(dp385
g9
I7
sg10
Nsg11
S'HS99'
p386
sg13
I2
sg14
Nsba(idev.opal.TestProblemCollections.cuterfactory
CUTErTestProblem
p387
(dp388
g9
I31
sg10
Nsg11
S'HS99EXP'
p389
sg13
I21
sg14
Nsbasg11
S'Hock-Schittkowski test problems'
p390
sbsg11
S'CUTEr collection'
p391
sS'subcollections'
p392
(lp393
g3
asb.
